; Function Attrs: mustprogress nofree norecurse nosync nounwind willreturn memory(read, inaccessiblemem: none) uwtable
define noundef nonnull align 8 dereferenceable(24) ptr @_ZN4LIEF3DEX4Type21underlying_array_typeEv(ptr noundef nonnull readonly align 8 dereferenceable(24) %0) local_unnamed_addr #8 align 2 {
  %2 = getelementptr inbounds i8, ptr %0, i64 8
  %3 = load i32, ptr %2, align 8
  %4 = icmp eq i32 %3, 3
  br i1 %4, label %.lr.ph.i, label %_ZNK4LIEF3DEX4Type21underlying_array_typeEv.exit

.lr.ph.i:                                         ; preds = %1, %.lr.ph.i
  %.04.i = phi ptr [ %9, %.lr.ph.i ], [ %0, %1 ]
  %5 = getelementptr inbounds i8, ptr %.04.i, i64 16
  %6 = load ptr, ptr %5, align 8
  %7 = getelementptr inbounds i8, ptr %6, i64 8
  %8 = load ptr, ptr %7, align 8
  %9 = getelementptr inbounds i8, ptr %8, i64 -24
  %10 = getelementptr inbounds i8, ptr %8, i64 -16
  %11 = load i32, ptr %10, align 8
  %12 = icmp eq i32 %11, 3
  br i1 %12, label %.lr.ph.i, label %_ZNK4LIEF3DEX4Type21underlying_array_typeEv.exit, !llvm.loop !6

_ZNK4LIEF3DEX4Type21underlying_array_typeEv.exit: ; preds = %.lr.ph.i, %1
  %.0.lcssa.i = phi ptr [ %0, %1 ], [ %9, %.lr.ph.i ]
  ret ptr %.0.lcssa.i
}